(lp0
(lp1
I1
aI3
aI0
aS'mario_16_bit.bmp'
p2
aaS'q2_filter_with_history_to_merge.py load mario_16_bit.bmp '
p3
aS'q2_filter_with_history_to_merge.py filter 3 4 5 6 7 8 8 9 0 1 '
p4
aS'q2_filter_with_history_to_merge.py filter 3 4 5 6 7 8 9 7 0.3 8 '
p5
a.